target datalayout = "e-m:e-p270:32:32-p271:32:32-p272:64:64-i64:64-i128:128-f80:128-n8:16:32:64-S128"
target triple = "x86_64-pc-linux-gnu"

%"struct.pkpy::Bytes" = type <{ ptr, i32, [4 x i8] }>

; Function Attrs: mustprogress uwtable
define void @_ZN4pkpy5BytesC2ERKS0_(ptr noundef nonnull align 8 dereferenceable(12) %0, ptr noundef nonnull align 8 dereferenceable(12) %1) unnamed_addr #5 align 2 {
  %3 = alloca ptr, align 8
  %4 = alloca ptr, align 8
  %5 = alloca i32, align 4
  store ptr %0, ptr %3, align 8
  store ptr %1, ptr %4, align 8
  %6 = load ptr, ptr %3, align 8
  %7 = load ptr, ptr %4, align 8
  %8 = getelementptr inbounds %"struct.pkpy::Bytes", ptr %7, i32 0, i32 1
  %9 = load i32, ptr %8, align 8
  %10 = sext i32 %9 to i64
  %11 = call noalias noundef nonnull ptr @_Znam(i64 noundef %10) #10
  %12 = getelementptr inbounds %"struct.pkpy::Bytes", ptr %6, i32 0, i32 0
  store ptr %11, ptr %12, align 8
  %13 = load ptr, ptr %4, align 8
  %14 = getelementptr inbounds %"struct.pkpy::Bytes", ptr %13, i32 0, i32 1
  %15 = load i32, ptr %14, align 8
  %16 = getelementptr inbounds %"struct.pkpy::Bytes", ptr %6, i32 0, i32 1
  store i32 %15, ptr %16, align 8
  store i32 0, ptr %5, align 4
  br label %17

17:                                               ; preds = %35, %2
  %18 = load i32, ptr %5, align 4
  %19 = getelementptr inbounds %"struct.pkpy::Bytes", ptr %6, i32 0, i32 1
  %20 = load i32, ptr %19, align 8
  %21 = icmp slt i32 %18, %20
  br i1 %21, label %22, label %38

22:                                               ; preds = %17
  %23 = load ptr, ptr %4, align 8
  %24 = getelementptr inbounds %"struct.pkpy::Bytes", ptr %23, i32 0, i32 0
  %25 = load ptr, ptr %24, align 8
  %26 = load i32, ptr %5, align 4
  %27 = sext i32 %26 to i64
  %28 = getelementptr inbounds i8, ptr %25, i64 %27
  %29 = load i8, ptr %28, align 1
  %30 = getelementptr inbounds %"struct.pkpy::Bytes", ptr %6, i32 0, i32 0
  %31 = load ptr, ptr %30, align 8
  %32 = load i32, ptr %5, align 4
  %33 = sext i32 %32 to i64
  %34 = getelementptr inbounds i8, ptr %31, i64 %33
  store i8 %29, ptr %34, align 1
  br label %35

35:                                               ; preds = %22
  %36 = load i32, ptr %5, align 4
  %37 = add nsw i32 %36, 1
  store i32 %37, ptr %5, align 4
  br label %17, !llvm.loop !7

38:                                               ; preds = %17
  ret void
}