; Function Attrs: mustprogress uwtable
define void @_ZN4pkpy5BytesC2ERKS0_(ptr nocapture noundef nonnull align 8 dereferenceable(12) %0, ptr nocapture noundef nonnull readonly align 8 dereferenceable(12) %1) unnamed_addr #4 align 2 {
  %3 = getelementptr inbounds i8, ptr %1, i64 8
  %4 = load i32, ptr %3, align 8
  %5 = sext i32 %4 to i64
  %6 = tail call noalias noundef nonnull ptr @_Znam(i64 noundef %5) #13
  store ptr %6, ptr %0, align 8
  %7 = load i32, ptr %3, align 8
  %8 = getelementptr inbounds i8, ptr %0, i64 8
  store i32 %7, ptr %8, align 8
  %9 = icmp sgt i32 %7, 0
  br i1 %9, label %.lr.ph, label %._crit_edge

.lr.ph:                                           ; preds = %2, %.lr.ph
  %indvars.iv = phi i64 [ %indvars.iv.next, %.lr.ph ], [ 0, %2 ]
  %10 = load ptr, ptr %1, align 8
  %11 = getelementptr inbounds i8, ptr %10, i64 %indvars.iv
  %12 = load i8, ptr %11, align 1
  %13 = load ptr, ptr %0, align 8
  %14 = getelementptr inbounds i8, ptr %13, i64 %indvars.iv
  store i8 %12, ptr %14, align 1
  %indvars.iv.next = add nuw nsw i64 %indvars.iv, 1
  %15 = load i32, ptr %8, align 8
  %16 = sext i32 %15 to i64
  %17 = icmp slt i64 %indvars.iv.next, %16
  br i1 %17, label %.lr.ph, label %._crit_edge, !llvm.loop !7

._crit_edge:                                      ; preds = %.lr.ph, %2
  ret void
}